; Function Attrs: mustprogress nofree norecurse nosync nounwind willreturn memory(argmem: readwrite) uwtable
define void @ffio_init_checksum(ptr noundef captures(none) initializes((120, 128)) %0, ptr noundef %1, i64 noundef %2) local_unnamed_addr #9 {
  %4 = getelementptr inbounds nuw i8, ptr %0, i64 120
  store ptr %1, ptr %4, align 8, !tbaa !39
  %.not = icmp eq ptr %1, null
  br i1 %.not, label %10, label %5

5:                                                ; preds = %3
  %6 = getelementptr inbounds nuw i8, ptr %0, i64 104
  store i64 %2, ptr %6, align 8, !tbaa !40
  %7 = getelementptr inbounds nuw i8, ptr %0, i64 24
  %8 = load ptr, ptr %7, align 8, !tbaa !16
  %9 = getelementptr inbounds nuw i8, ptr %0, i64 112
  store ptr %8, ptr %9, align 8, !tbaa !41
  br label %10

10:                                               ; preds = %5, %3
  ret void
}